target datalayout = "e-m:e-p270:32:32-p271:32:32-p272:64:64-i64:64-i128:128-f80:128-n8:16:32:64-S128"
target triple = "x86_64-unknown-linux-gnu"

; Function Attrs: mustprogress uwtable
define hidden noundef zeroext i1 @_ZN11doc_manager5mergeER3docjjRK10union_findI22union_find_default_ctxS3_ERK10bit_vector(ptr noundef nonnull align 8 dereferenceable(1080) %this, ptr noundef nonnull align 8 dereferenceable(88) %d, i32 noundef %lo, i32 noundef %length, ptr noundef nonnull align 8 dereferenceable(56) %equalities, ptr noundef nonnull align 8 dereferenceable(16) %discard_cols) #4 align 2 {
entry:
  %retval = alloca i1, align 1
  %this.addr = alloca ptr, align 8
  %d.addr = alloca ptr, align 8
  %lo.addr = alloca i32, align 4
  %length.addr = alloca i32, align 4
  %equalities.addr = alloca ptr, align 8
  %discard_cols.addr = alloca ptr, align 8
  %i = alloca i32, align 4
  %idx = alloca i32, align 4
  store ptr %this, ptr %this.addr, align 8
  store ptr %d, ptr %d.addr, align 8
  store i32 %lo, ptr %lo.addr, align 4
  store i32 %length, ptr %length.addr, align 4
  store ptr %equalities, ptr %equalities.addr, align 8
  store ptr %discard_cols, ptr %discard_cols.addr, align 8
  %this1 = load ptr, ptr %this.addr, align 8
  store i32 0, ptr %i, align 4
  br label %for.cond

for.cond:                                         ; preds = %for.inc, %entry
  %0 = load i32, ptr %i, align 4
  %1 = load i32, ptr %length.addr, align 4
  %cmp = icmp ult i32 %0, %1
  br i1 %cmp, label %for.body, label %for.end

for.body:                                         ; preds = %for.cond
  %2 = load i32, ptr %lo.addr, align 4
  %3 = load i32, ptr %i, align 4
  %add = add i32 %2, %3
  store i32 %add, ptr %idx, align 4
  %4 = load ptr, ptr %d.addr, align 8
  %5 = load i32, ptr %idx, align 4
  %6 = load ptr, ptr %equalities.addr, align 8
  %7 = load ptr, ptr %discard_cols.addr, align 8
  %call = call noundef zeroext i1 @_ZN11doc_manager5mergeER3docjRK10union_findI22union_find_default_ctxS3_ERK10bit_vector(ptr noundef nonnull align 8 dereferenceable(1080) %this1, ptr noundef nonnull align 8 dereferenceable(88) %4, i32 noundef %5, ptr noundef nonnull align 8 dereferenceable(56) %6, ptr noundef nonnull align 8 dereferenceable(16) %7)
  br i1 %call, label %if.end, label %if.then

if.then:                                          ; preds = %for.body
  store i1 false, ptr %retval, align 1
  br label %return

if.end:                                           ; preds = %for.body
  br label %for.inc

for.inc:                                          ; preds = %if.end
  %8 = load i32, ptr %i, align 4
  %inc = add i32 %8, 1
  store i32 %inc, ptr %i, align 4
  br label %for.cond, !llvm.loop !18

for.end:                                          ; preds = %for.cond
  store i1 true, ptr %retval, align 1
  br label %return

return:                                           ; preds = %for.end, %if.then
  %9 = load i1, ptr %retval, align 1
  ret i1 %9
}