; Function Attrs: mustprogress uwtable
define hidden noundef zeroext i1 @_ZN11doc_manager5mergeER3docjjRK10union_findI22union_find_default_ctxS3_ERK10bit_vector(ptr noundef nonnull align 8 dereferenceable(1080) %this, ptr noundef nonnull align 8 dereferenceable(88) %d, i32 noundef %lo, i32 noundef %length, ptr nocapture noundef nonnull readonly align 8 dereferenceable(56) %equalities, ptr nocapture noundef nonnull readonly align 8 dereferenceable(16) %discard_cols) local_unnamed_addr #3 align 2 {
entry:
  %cmp3 = icmp eq i32 %length, 0
  br i1 %cmp3, label %return, label %for.body.preheader

for.body.preheader:                               ; preds = %entry
  %call7 = tail call noundef zeroext i1 @_ZN11doc_manager5mergeER3docjRK10union_findI22union_find_default_ctxS3_ERK10bit_vector(ptr noundef nonnull align 8 dereferenceable(1080) %this, ptr noundef nonnull align 8 dereferenceable(88) %d, i32 noundef %lo, ptr noundef nonnull align 8 dereferenceable(56) %equalities, ptr noundef nonnull align 8 dereferenceable(16) %discard_cols)
  br i1 %call7, label %for.cond, label %return

for.cond:                                         ; preds = %for.body.preheader, %for.body
  %i.048 = phi i32 [ %inc, %for.body ], [ 0, %for.body.preheader ]
  %inc = add nuw i32 %i.048, 1
  %exitcond = icmp eq i32 %inc, %length
  br i1 %exitcond, label %return.loopexit, label %for.body, !llvm.loop !19

for.body:                                         ; preds = %for.cond
  %add = add i32 %inc, %lo
  %call = tail call noundef zeroext i1 @_ZN11doc_manager5mergeER3docjRK10union_findI22union_find_default_ctxS3_ERK10bit_vector(ptr noundef nonnull align 8 dereferenceable(1080) %this, ptr noundef nonnull align 8 dereferenceable(88) %d, i32 noundef %add, ptr noundef nonnull align 8 dereferenceable(56) %equalities, ptr noundef nonnull align 8 dereferenceable(16) %discard_cols)
  br i1 %call, label %for.cond, label %return.loopexit, !llvm.loop !19

return.loopexit:                                  ; preds = %for.body, %for.cond
  %cmp.le = icmp uge i32 %inc, %length
  br label %return

return:                                           ; preds = %return.loopexit, %for.body.preheader, %entry
  %cmp.lcssa = phi i1 [ true, %entry ], [ false, %for.body.preheader ], [ %cmp.le, %return.loopexit ]
  ret i1 %cmp.lcssa
}